#include <math.h>
#include <stdio.h>
#include <stdlib.h>
#include <string.h>

main()
{
      int n,i,j;
      int k=0;
      int b=1;
      scanf("%d",&n);
      int a[n];
      for(i=3;i<=n;i++)
      {
             for (j=2;j<=i-1;j++)
                {
                               if (i%j==0)
                               break;
                 }
             if (j==i)
             {
             
                   a[k]=i;
                   k++;
             }
      }
      for(i=0;i<=k-2;i++)
      {
        if((a[i]+2)==a[i+1])
        {
            printf("%d %d\n",a[i],a[i+1]);
            b++;
        }
            
      }
     if(b==1)
     printf("empty");
     getchar();
     getchar();
     getchar();      
}